; ModuleID = '9/7.c'
source_filename = "9/7.c"
target datalayout = "e-m:e-p270:32:32-p271:32:32-p272:64:64-i64:64-f80:128-n8:16:32:64-S128"
target triple = "x86_64-pc-linux-gnu"

@.str = private unnamed_addr constant [3 x i8] c"%d\00", align 1
@.str.1 = private unnamed_addr constant [6 x i8] c"%s %d\00", align 1
@.str.2 = private unnamed_addr constant [4 x i8] c"%s\0A\00", align 1

; Function Attrs: noinline nounwind uwtable
define dso_local i32 @main() #0 {
  %1 = alloca i32, align 4
  %2 = alloca i32, align 4
  %3 = alloca i32, align 4
  %4 = alloca i32, align 4
  %5 = alloca i32, align 4
  %6 = alloca i32, align 4
  %7 = alloca i32, align 4
  %8 = alloca [100 x i32], align 16
  %9 = alloca [100 x i32], align 16
  %10 = alloca [10 x i8], align 1
  %11 = alloca [100 x [10 x i8]], align 16
  %12 = alloca [100 x [10 x i8]], align 16
  store i32 0, i32* %1, align 4
  store i32 0, i32* %5, align 4
  store i32 0, i32* %6, align 4
  %13 = call i32 (i8*, ...) @__isoc99_scanf(i8* getelementptr inbounds ([3 x i8], [3 x i8]* @.str, i64 0, i64 0), i32* %4)
  store i32 0, i32* %2, align 4
  br label %14

14:                                               ; preds = %49, %0
  %15 = load i32, i32* %2, align 4
  %16 = load i32, i32* %4, align 4
  %17 = icmp slt i32 %15, %16
  br i1 %17, label %18, label %52

18:                                               ; preds = %14
  %19 = call i32 (i8*, ...) @__isoc99_scanf(i8* getelementptr inbounds ([6 x i8], [6 x i8]* @.str.1, i64 0, i64 0), [10 x i8]* %10, i32* %7)
  %20 = load i32, i32* %7, align 4
  %21 = icmp slt i32 %20, 60
  br i1 %21, label %22, label %35

22:                                               ; preds = %18
  %23 = load i32, i32* %6, align 4
  %24 = sext i32 %23 to i64
  %25 = getelementptr inbounds [100 x [10 x i8]], [100 x [10 x i8]]* %12, i64 0, i64 %24
  %26 = getelementptr inbounds [10 x i8], [10 x i8]* %25, i64 0, i64 0
  %27 = getelementptr inbounds [10 x i8], [10 x i8]* %10, i64 0, i64 0
  %28 = call i8* @strcpy(i8* %26, i8* %27) #3
  %29 = load i32, i32* %7, align 4
  %30 = load i32, i32* %6, align 4
  %31 = sext i32 %30 to i64
  %32 = getelementptr inbounds [100 x i32], [100 x i32]* %9, i64 0, i64 %31
  store i32 %29, i32* %32, align 4
  %33 = load i32, i32* %6, align 4
  %34 = add nsw i32 %33, 1
  store i32 %34, i32* %6, align 4
  br label %48

35:                                               ; preds = %18
  %36 = load i32, i32* %5, align 4
  %37 = sext i32 %36 to i64
  %38 = getelementptr inbounds [100 x [10 x i8]], [100 x [10 x i8]]* %11, i64 0, i64 %37
  %39 = getelementptr inbounds [10 x i8], [10 x i8]* %38, i64 0, i64 0
  %40 = getelementptr inbounds [10 x i8], [10 x i8]* %10, i64 0, i64 0
  %41 = call i8* @strcpy(i8* %39, i8* %40) #3
  %42 = load i32, i32* %7, align 4
  %43 = load i32, i32* %5, align 4
  %44 = sext i32 %43 to i64
  %45 = getelementptr inbounds [100 x i32], [100 x i32]* %8, i64 0, i64 %44
  store i32 %42, i32* %45, align 4
  %46 = load i32, i32* %5, align 4
  %47 = add nsw i32 %46, 1
  store i32 %47, i32* %5, align 4
  br label %48

48:                                               ; preds = %35, %22
  br label %49

49:                                               ; preds = %48
  %50 = load i32, i32* %2, align 4
  %51 = add nsw i32 %50, 1
  store i32 %51, i32* %2, align 4
  br label %14

52:                                               ; preds = %14
  %53 = load i32, i32* %5, align 4
  %54 = sub nsw i32 %53, 1
  store i32 %54, i32* %2, align 4
  br label %55

55:                                               ; preds = %120, %52
  %56 = load i32, i32* %2, align 4
  %57 = icmp sge i32 %56, 0
  br i1 %57, label %58, label %123

58:                                               ; preds = %55
  store i32 0, i32* %3, align 4
  br label %59

59:                                               ; preds = %116, %58
  %60 = load i32, i32* %3, align 4
  %61 = load i32, i32* %2, align 4
  %62 = icmp slt i32 %60, %61
  br i1 %62, label %63, label %119

63:                                               ; preds = %59
  %64 = load i32, i32* %3, align 4
  %65 = sext i32 %64 to i64
  %66 = getelementptr inbounds [100 x i32], [100 x i32]* %8, i64 0, i64 %65
  %67 = load i32, i32* %66, align 4
  %68 = load i32, i32* %3, align 4
  %69 = add nsw i32 %68, 1
  %70 = sext i32 %69 to i64
  %71 = getelementptr inbounds [100 x i32], [100 x i32]* %8, i64 0, i64 %70
  %72 = load i32, i32* %71, align 4
  %73 = icmp slt i32 %67, %72
  br i1 %73, label %74, label %115

74:                                               ; preds = %63
  %75 = load i32, i32* %3, align 4
  %76 = sext i32 %75 to i64
  %77 = getelementptr inbounds [100 x i32], [100 x i32]* %8, i64 0, i64 %76
  %78 = load i32, i32* %77, align 4
  store i32 %78, i32* %7, align 4
  %79 = load i32, i32* %3, align 4
  %80 = add nsw i32 %79, 1
  %81 = sext i32 %80 to i64
  %82 = getelementptr inbounds [100 x i32], [100 x i32]* %8, i64 0, i64 %81
  %83 = load i32, i32* %82, align 4
  %84 = load i32, i32* %3, align 4
  %85 = sext i32 %84 to i64
  %86 = getelementptr inbounds [100 x i32], [100 x i32]* %8, i64 0, i64 %85
  store i32 %83, i32* %86, align 4
  %87 = load i32, i32* %7, align 4
  %88 = load i32, i32* %3, align 4
  %89 = add nsw i32 %88, 1
  %90 = sext i32 %89 to i64
  %91 = getelementptr inbounds [100 x i32], [100 x i32]* %8, i64 0, i64 %90
  store i32 %87, i32* %91, align 4
  %92 = getelementptr inbounds [10 x i8], [10 x i8]* %10, i64 0, i64 0
  %93 = load i32, i32* %3, align 4
  %94 = sext i32 %93 to i64
  %95 = getelementptr inbounds [100 x [10 x i8]], [100 x [10 x i8]]* %11, i64 0, i64 %94
  %96 = getelementptr inbounds [10 x i8], [10 x i8]* %95, i64 0, i64 0
  %97 = call i8* @strcpy(i8* %92, i8* %96) #3
  %98 = load i32, i32* %3, align 4
  %99 = sext i32 %98 to i64
  %100 = getelementptr inbounds [100 x [10 x i8]], [100 x [10 x i8]]* %11, i64 0, i64 %99
  %101 = getelementptr inbounds [10 x i8], [10 x i8]* %100, i64 0, i64 0
  %102 = load i32, i32* %3, align 4
  %103 = add nsw i32 %102, 1
  %104 = sext i32 %103 to i64
  %105 = getelementptr inbounds [100 x [10 x i8]], [100 x [10 x i8]]* %11, i64 0, i64 %104
  %106 = getelementptr inbounds [10 x i8], [10 x i8]* %105, i64 0, i64 0
  %107 = call i8* @strcpy(i8* %101, i8* %106) #3
  %108 = load i32, i32* %3, align 4
  %109 = add nsw i32 %108, 1
  %110 = sext i32 %109 to i64
  %111 = getelementptr inbounds [100 x [10 x i8]], [100 x [10 x i8]]* %11, i64 0, i64 %110
  %112 = getelementptr inbounds [10 x i8], [10 x i8]* %111, i64 0, i64 0
  %113 = getelementptr inbounds [10 x i8], [10 x i8]* %10, i64 0, i64 0
  %114 = call i8* @strcpy(i8* %112, i8* %113) #3
  br label %115

115:                                              ; preds = %74, %63
  br label %116

116:                                              ; preds = %115
  %117 = load i32, i32* %3, align 4
  %118 = add nsw i32 %117, 1
  store i32 %118, i32* %3, align 4
  br label %59

119:                                              ; preds = %59
  br label %120

120:                                              ; preds = %119
  %121 = load i32, i32* %2, align 4
  %122 = add nsw i32 %121, -1
  store i32 %122, i32* %2, align 4
  br label %55

123:                                              ; preds = %55
  store i32 0, i32* %2, align 4
  br label %124

124:                                              ; preds = %134, %123
  %125 = load i32, i32* %2, align 4
  %126 = load i32, i32* %5, align 4
  %127 = icmp slt i32 %125, %126
  br i1 %127, label %128, label %137

128:                                              ; preds = %124
  %129 = load i32, i32* %2, align 4
  %130 = sext i32 %129 to i64
  %131 = getelementptr inbounds [100 x [10 x i8]], [100 x [10 x i8]]* %11, i64 0, i64 %130
  %132 = getelementptr inbounds [10 x i8], [10 x i8]* %131, i64 0, i64 0
  %133 = call i32 (i8*, ...) @printf(i8* getelementptr inbounds ([4 x i8], [4 x i8]* @.str.2, i64 0, i64 0), i8* %132)
  br label %134

134:                                              ; preds = %128
  %135 = load i32, i32* %2, align 4
  %136 = add nsw i32 %135, 1
  store i32 %136, i32* %2, align 4
  br label %124

137:                                              ; preds = %124
  store i32 0, i32* %2, align 4
  br label %138

138:                                              ; preds = %148, %137
  %139 = load i32, i32* %2, align 4
  %140 = load i32, i32* %6, align 4
  %141 = icmp slt i32 %139, %140
  br i1 %141, label %142, label %151

142:                                              ; preds = %138
  %143 = load i32, i32* %2, align 4
  %144 = sext i32 %143 to i64
  %145 = getelementptr inbounds [100 x [10 x i8]], [100 x [10 x i8]]* %12, i64 0, i64 %144
  %146 = getelementptr inbounds [10 x i8], [10 x i8]* %145, i64 0, i64 0
  %147 = call i32 (i8*, ...) @printf(i8* getelementptr inbounds ([4 x i8], [4 x i8]* @.str.2, i64 0, i64 0), i8* %146)
  br label %148

148:                                              ; preds = %142
  %149 = load i32, i32* %2, align 4
  %150 = add nsw i32 %149, 1
  store i32 %150, i32* %2, align 4
  br label %138

151:                                              ; preds = %138
  ret i32 0
}

declare dso_local i32 @__isoc99_scanf(i8*, ...) #1

; Function Attrs: nounwind
declare dso_local i8* @strcpy(i8*, i8*) #2

declare dso_local i32 @printf(i8*, ...) #1


!llvm.module.flags = !{!0}
!llvm.ident = !{!1}

!0 = !{i32 1, !"wchar_size", i32 4}
!1 = !{!"clang version 10.0.0-4ubuntu1 "}
